target datalayout = "e-m:e-p270:32:32-p271:32:32-p272:64:64-i64:64-i128:128-f80:128-n8:16:32:64-S128"
target triple = "x86_64-unknown-linux-gnu"

%struct.AddressSpace = type { %struct.rcu_head, ptr, ptr, ptr, i32, i32, ptr, %union.anon.0, %union.anon.1 }
%struct.rcu_head = type { ptr, ptr }
%union.anon.0 = type { %struct.QTailQLink }
%struct.QTailQLink = type { ptr, ptr }
%union.anon.1 = type { %struct.QTailQLink }
%struct.SDHCIState = type { %union.anon, %struct.SDBus, %struct.MemoryRegion, %struct.AddressSpace, ptr, ptr, ptr, ptr, ptr, ptr, i32, i16, i16, i32, i16, i16, [4 x i32], i32, i8, i8, i8, i8, i16, i8, i8, i16, i16, i16, i16, i16, i16, i16, i16, i64, i16, i64, i64, i16, ptr, i32, i16, i8, i8, i8, i32, i8, i8, i8, i8 }
%union.anon = type { %struct.PCIDevice }
%struct.PCIDevice = type { %struct.DeviceState, i8, i8, ptr, ptr, ptr, ptr, ptr, i32, %struct.PCIReqIDCache, [64 x i8], [7 x %struct.PCIIORegion], %struct.AddressSpace, %struct.MemoryRegion, %struct.MemoryRegion, ptr, ptr, [3 x ptr], i8, i8, i32, i8, i32, ptr, ptr, ptr, ptr, ptr, ptr, %struct.MemoryRegion, %struct.MemoryRegion, %struct.MemoryRegion, ptr, i8, i32, i8, %struct.PCIExpressDevice, ptr, ptr, i32, i8, %struct.MemoryRegion, i32, ptr, ptr, ptr, ptr, ptr, i32 }
%struct.DeviceState = type { %struct.Object, ptr, ptr, i8, i8, i64, ptr, i32, i8, ptr, %struct.NamedGPIOListHead, %struct.NamedClockListHead, %struct.BusStateHead, i32, i32, i32, %struct.ResettableState, ptr, %struct.MemReentrancyGuard }
%struct.Object = type { ptr, ptr, ptr, i32, ptr }
%struct.NamedGPIOListHead = type { ptr }
%struct.NamedClockListHead = type { ptr }
%struct.BusStateHead = type { ptr }
%struct.ResettableState = type { i32, i8, i8 }
%struct.MemReentrancyGuard = type { i8 }
%struct.PCIReqIDCache = type { ptr, i32 }
%struct.PCIIORegion = type { i64, i64, i8, ptr, ptr }
%struct.PCIExpressDevice = type { i8, i8, i8, i16, %struct.PCIEAERLog, i16, i16, i16, %struct.PCIESriovPF, %struct.PCIESriovVF }
%struct.PCIEAERLog = type { i16, i16, ptr }
%struct.PCIESriovPF = type { i16, [7 x i8], ptr, ptr }
%struct.PCIESriovVF = type { ptr, i16 }
%struct.SDBus = type { %struct.BusState }
%struct.BusState = type { %struct.Object, ptr, ptr, ptr, i32, i8, i8, i32, %union.BusChildHead, %struct.BusStateEntry, %struct.ResettableState }
%union.BusChildHead = type { %struct.QTailQLink }
%struct.BusStateEntry = type { ptr, ptr }
%struct.MemoryRegion = type { %struct.Object, i8, i8, i8, i8, i8, i8, i8, i8, i8, i8, ptr, ptr, ptr, ptr, ptr, ptr, i32, i128, i64, ptr, i64, i8, i8, i8, i8, i8, ptr, i64, i32, %union.anon.2, %union.anon.3, %union.anon.4, ptr, i32, ptr, ptr, i8 }
%union.anon.2 = type { %struct.QTailQLink }
%union.anon.3 = type { %struct.QTailQLink }
%union.anon.4 = type { %struct.QTailQLink }

@.str.151 = private unnamed_addr constant [14 x i8] c"generic-sdhci\00", align 1
@.str.153 = private unnamed_addr constant [100 x i8] c"/home/dtcxzyw/WorkSpace/Projects/compilers/llvm-opt-benchmark/bench/qemu/qemu/include/hw/sd/sdhci.h\00", align 1
@__func__.SYSBUS_SDHCI = private unnamed_addr constant [13 x i8] c"SYSBUS_SDHCI\00", align 1

; Function Attrs: nounwind sspstrong uwtable
define internal ptr @SYSBUS_SDHCI(ptr noundef %obj) #0 {
entry:
  %obj.addr = alloca ptr, align 8
  store ptr %obj, ptr %obj.addr, align 8
  %0 = load ptr, ptr %obj.addr, align 8
  %call = call ptr @object_dynamic_cast_assert(ptr noundef %0, ptr noundef @.str.151, ptr noundef @.str.153, i32 noundef 124, ptr noundef @__func__.SYSBUS_SDHCI)
  ret ptr %call
}

; Function Attrs: nounwind sspstrong uwtable
define internal i64 @usdhc_read(ptr noundef %opaque, i64 noundef %offset, i32 noundef %size) #0 {
entry:
  %retval = alloca i64, align 8
  %opaque.addr = alloca ptr, align 8
  %offset.addr = alloca i64, align 8
  %size.addr = alloca i32, align 4
  %s = alloca ptr, align 8
  %ret = alloca i32, align 4
  %hostctl1 = alloca i16, align 2
  store ptr %opaque, ptr %opaque.addr, align 8
  store i64 %offset, ptr %offset.addr, align 8
  store i32 %size, ptr %size.addr, align 4
  %0 = load ptr, ptr %opaque.addr, align 8
  %call = call ptr @SYSBUS_SDHCI(ptr noundef %0)
  store ptr %call, ptr %s, align 8
  %1 = load i64, ptr %offset.addr, align 8
  switch i64 %1, label %sw.default [
    i64 40, label %sw.bb
    i64 36, label %sw.bb25
    i64 192, label %sw.bb35
    i64 96, label %sw.bb37
    i64 104, label %sw.bb37
    i64 108, label %sw.bb37
    i64 204, label %sw.bb37
    i64 72, label %sw.bb37
    i64 68, label %sw.bb37
  ]

sw.default:                                       ; preds = %entry
  %2 = load ptr, ptr %opaque.addr, align 8
  %3 = load i64, ptr %offset.addr, align 8
  %4 = load i32, ptr %size.addr, align 4
  %call1 = call i64 @sdhci_read(ptr noundef %2, i64 noundef %3, i32 noundef %4)
  store i64 %call1, ptr %retval, align 8
  br label %return

sw.bb:                                            ; preds = %entry
  %5 = load ptr, ptr %s, align 8
  %hostctl12 = getelementptr inbounds %struct.SDHCIState, ptr %5, i32 0, i32 18
  %6 = load i8, ptr %hostctl12, align 4
  %conv = zext i8 %6 to i32
  %and = and i32 %conv, 24
  %shl = shl i32 %and, 5
  %conv3 = trunc i32 %shl to i16
  store i16 %conv3, ptr %hostctl1, align 2
  %7 = load ptr, ptr %s, align 8
  %hostctl14 = getelementptr inbounds %struct.SDHCIState, ptr %7, i32 0, i32 18
  %8 = load i8, ptr %hostctl14, align 4
  %conv5 = zext i8 %8 to i32
  %and6 = and i32 %conv5, 32
  %tobool = icmp ne i32 %and6, 0
  br i1 %tobool, label %if.then, label %if.end

if.then:                                          ; preds = %sw.bb
  %9 = load i16, ptr %hostctl1, align 2
  %conv7 = zext i16 %9 to i32
  %or = or i32 %conv7, 4
  %conv8 = trunc i32 %or to i16
  store i16 %conv8, ptr %hostctl1, align 2
  br label %if.end

if.end:                                           ; preds = %if.then, %sw.bb
  %10 = load ptr, ptr %s, align 8
  %hostctl19 = getelementptr inbounds %struct.SDHCIState, ptr %10, i32 0, i32 18
  %11 = load i8, ptr %hostctl19, align 4
  %conv10 = zext i8 %11 to i32
  %and11 = and i32 %conv10, 2
  %tobool12 = icmp ne i32 %and11, 0
  br i1 %tobool12, label %if.then13, label %if.end17

if.then13:                                        ; preds = %if.end
  %12 = load i16, ptr %hostctl1, align 2
  %conv14 = zext i16 %12 to i32
  %or15 = or i32 %conv14, 2
  %conv16 = trunc i32 %or15 to i16
  store i16 %conv16, ptr %hostctl1, align 2
  br label %if.end17

if.end17:                                         ; preds = %if.then13, %if.end
  %13 = load i16, ptr %hostctl1, align 2
  %conv18 = zext i16 %13 to i32
  store i32 %conv18, ptr %ret, align 4
  %14 = load ptr, ptr %s, align 8
  %blkgap = getelementptr inbounds %struct.SDHCIState, ptr %14, i32 0, i32 20
  %15 = load i8, ptr %blkgap, align 2
  %conv19 = zext i8 %15 to i32
  %shl20 = shl i32 %conv19, 16
  %16 = load i32, ptr %ret, align 4
  %or21 = or i32 %16, %shl20
  store i32 %or21, ptr %ret, align 4
  %17 = load ptr, ptr %s, align 8
  %wakcon = getelementptr inbounds %struct.SDHCIState, ptr %17, i32 0, i32 21
  %18 = load i8, ptr %wakcon, align 1
  %conv22 = zext i8 %18 to i32
  %shl23 = shl i32 %conv22, 24
  %19 = load i32, ptr %ret, align 4
  %or24 = or i32 %19, %shl23
  store i32 %or24, ptr %ret, align 4
  br label %sw.epilog

sw.bb25:                                          ; preds = %entry
  %20 = load ptr, ptr %opaque.addr, align 8
  %21 = load i64, ptr %offset.addr, align 8
  %22 = load i32, ptr %size.addr, align 4
  %call26 = call i64 @sdhci_read(ptr noundef %20, i64 noundef %21, i32 noundef %22)
  %and27 = and i64 %call26, -9
  %conv28 = trunc i64 %and27 to i32
  store i32 %conv28, ptr %ret, align 4
  %23 = load ptr, ptr %s, align 8
  %clkcon = getelementptr inbounds %struct.SDHCIState, ptr %23, i32 0, i32 22
  %24 = load i16, ptr %clkcon, align 16
  %conv29 = zext i16 %24 to i32
  %and30 = and i32 %conv29, 2
  %tobool31 = icmp ne i32 %and30, 0
  br i1 %tobool31, label %if.then32, label %if.end34

if.then32:                                        ; preds = %sw.bb25
  %25 = load i32, ptr %ret, align 4
  %or33 = or i32 %25, 8
  store i32 %or33, ptr %ret, align 4
  br label %if.end34

if.end34:                                         ; preds = %if.then32, %sw.bb25
  br label %sw.epilog

sw.bb35:                                          ; preds = %entry
  %26 = load ptr, ptr %s, align 8
  %vendor_spec = getelementptr inbounds %struct.SDHCIState, ptr %26, i32 0, i32 34
  %27 = load i16, ptr %vendor_spec, align 16
  %conv36 = zext i16 %27 to i32
  store i32 %conv36, ptr %ret, align 4
  br label %sw.epilog

sw.bb37:                                          ; preds = %entry, %entry, %entry, %entry, %entry, %entry
  store i32 0, ptr %ret, align 4
  br label %sw.epilog

sw.epilog:                                        ; preds = %sw.bb37, %sw.bb35, %if.end34, %if.end17
  %28 = load i32, ptr %ret, align 4
  %conv38 = zext i32 %28 to i64
  store i64 %conv38, ptr %retval, align 8
  br label %return

return:                                           ; preds = %sw.epilog, %sw.default
  %29 = load i64, ptr %retval, align 8
  ret i64 %29
}