; Function Attrs: nounwind sspstrong uwtable
define internal range(i64 0, 4294967296) i64 @usdhc_read(ptr noundef %opaque, i64 noundef %offset, i32 noundef %size) #0 {
entry:
  %call.i = tail call ptr @object_dynamic_cast_assert(ptr noundef %opaque, ptr noundef nonnull @.str.151, ptr noundef nonnull @.str.153, i32 noundef 124, ptr noundef nonnull @__func__.SYSBUS_SDHCI) #12
  switch i64 %offset, label %sw.default [
    i64 40, label %sw.bb
    i64 36, label %sw.bb25
    i64 192, label %sw.bb35
    i64 96, label %return
    i64 104, label %return
    i64 108, label %return
    i64 204, label %return
    i64 72, label %return
    i64 68, label %return
  ]

sw.default:                                       ; preds = %entry
  %call1 = tail call i64 @sdhci_read(ptr noundef %opaque, i64 noundef %offset, i32 noundef %size)
  br label %return

sw.bb:                                            ; preds = %entry
  %hostctl12 = getelementptr inbounds nuw i8, ptr %call.i, i64 3180
  %0 = load i8, ptr %hostctl12, align 4
  %conv.tr = zext i8 %0 to i64
  %1 = shl nuw nsw i64 %conv.tr, 5
  %conv3 = and i64 %1, 768
  %2 = lshr i8 %0, 3
  %3 = and i8 %2, 4
  %4 = and i8 %0, 2
  %blkgap = getelementptr inbounds nuw i8, ptr %call.i, i64 3182
  %5 = load i8, ptr %blkgap, align 2
  %conv19 = zext i8 %5 to i64
  %shl20 = shl nuw nsw i64 %conv19, 16
  %wakcon = getelementptr inbounds nuw i8, ptr %call.i, i64 3183
  %6 = load i8, ptr %wakcon, align 1
  %conv22 = zext i8 %6 to i64
  %shl23 = shl nuw nsw i64 %conv22, 24
  %spec.select18 = or disjoint i8 %3, %4
  %spec.select = zext nneg i8 %spec.select18 to i64
  %hostctl1.1 = or disjoint i64 %conv3, %spec.select
  %or21 = or disjoint i64 %hostctl1.1, %shl20
  %or24 = or disjoint i64 %or21, %shl23
  br label %return

sw.bb25:                                          ; preds = %entry
  %call26 = tail call i64 @sdhci_read(ptr noundef %opaque, i64 noundef 36, i32 noundef %size)
  %conv28 = and i64 %call26, 4294967287
  %clkcon = getelementptr inbounds nuw i8, ptr %call.i, i64 3184
  %7 = load i16, ptr %clkcon, align 16
  %8 = and i16 %7, 2
  %tobool31.not = icmp eq i16 %8, 0
  %or33 = or i64 %call26, 8
  %spec.select17 = select i1 %tobool31.not, i64 %conv28, i64 %or33
  br label %return

sw.bb35:                                          ; preds = %entry
  %vendor_spec = getelementptr inbounds nuw i8, ptr %call.i, i64 3216
  %9 = load i16, ptr %vendor_spec, align 16
  %conv36 = zext i16 %9 to i64
  br label %return

return:                                           ; preds = %sw.bb, %sw.bb35, %entry, %entry, %entry, %entry, %entry, %entry, %sw.bb25, %sw.default
  %retval.0 = phi i64 [ %call1, %sw.default ], [ %conv36, %sw.bb35 ], [ %or24, %sw.bb ], [ %spec.select17, %sw.bb25 ], [ 0, %entry ], [ 0, %entry ], [ 0, %entry ], [ 0, %entry ], [ 0, %entry ], [ 0, %entry ]
  ret i64 %retval.0
}